target datalayout = "e-m:e-p270:32:32-p271:32:32-p272:64:64-i64:64-i128:128-f80:128-n8:16:32:64-S128"
target triple = "x86_64-pc-linux-gnu"

%struct.priv_state = type { i32, i32, ptr, i32 }

@.str.82 = private unnamed_addr constant [30 x i8] c"%s: Unable to drop privileges\00", align 1
@__func__._shutdown_x11_forward = private unnamed_addr constant [22 x i8] c"_shutdown_x11_forward\00", align 1
@.str.83 = private unnamed_addr constant [32 x i8] c"%s: x11 forward shutdown failed\00", align 1
@.str.84 = private unnamed_addr constant [33 x i8] c"%s: Unable to reclaim privileges\00", align 1

; Function Attrs: nounwind uwtable
define internal void @_shutdown_x11_forward(ptr noundef %0) #0 {
  %2 = alloca ptr, align 8
  %3 = alloca %struct.priv_state, align 8
  %4 = alloca i32, align 4
  store ptr %0, ptr %2, align 8
  call void @llvm.lifetime.start.p0(i64 24, ptr %3) #12
  call void @llvm.memset.p0.i64(ptr align 8 %3, i8 0, i64 24, i1 false)
  %5 = load ptr, ptr %2, align 8
  %6 = call i32 @drop_privileges(ptr noundef %5, i1 noundef zeroext true, ptr noundef %3, i1 noundef zeroext false)
  %7 = icmp slt i32 %6, 0
  br i1 %7, label %8, label %10

8:                                                ; preds = %1
  %9 = call i32 (ptr, ...) @error(ptr noundef @.str.82, ptr noundef @__func__._shutdown_x11_forward)
  store i32 1, ptr %4, align 4
  br label %22

10:                                               ; preds = %1
  %11 = load ptr, ptr %2, align 8
  %12 = call i32 @shutdown_x11_forward(ptr noundef %11)
  %13 = icmp ne i32 %12, 0
  br i1 %13, label %14, label %16

14:                                               ; preds = %10
  %15 = call i32 (ptr, ...) @error(ptr noundef @.str.83, ptr noundef @__func__._shutdown_x11_forward)
  br label %16

16:                                               ; preds = %14, %10
  %17 = call i32 @reclaim_privileges(ptr noundef %3)
  %18 = icmp slt i32 %17, 0
  br i1 %18, label %19, label %21

19:                                               ; preds = %16
  %20 = call i32 (ptr, ...) @error(ptr noundef @.str.84, ptr noundef @__func__._shutdown_x11_forward)
  br label %21

21:                                               ; preds = %19, %16
  store i32 0, ptr %4, align 4
  br label %22

22:                                               ; preds = %21, %8
  call void @llvm.lifetime.end.p0(i64 24, ptr %3) #12
  %23 = load i32, ptr %4, align 4
  switch i32 %23, label %25 [
    i32 0, label %24
    i32 1, label %24
  ]

24:                                               ; preds = %22, %22
  ret void

25:                                               ; preds = %22
  unreachable
}