; Function Attrs: nounwind uwtable
define internal fastcc void @_shutdown_x11_forward(ptr noundef %0) unnamed_addr #0 {
  %2 = alloca %struct.priv_state, align 8
  call void @llvm.lifetime.start.p0(i64 24, ptr nonnull %2) #17
  call void @llvm.memset.p0.i64(ptr noundef nonnull align 8 dereferenceable(24) %2, i8 0, i64 24, i1 false)
  %3 = call i32 @drop_privileges(ptr noundef %0, i1 noundef zeroext true, ptr noundef nonnull %2, i1 noundef zeroext false) #17
  %4 = icmp slt i32 %3, 0
  br i1 %4, label %.sink.split, label %5

5:                                                ; preds = %1
  %6 = call i32 @shutdown_x11_forward(ptr noundef %0) #17
  %.not = icmp eq i32 %6, 0
  br i1 %.not, label %9, label %7

7:                                                ; preds = %5
  %8 = call i32 (ptr, ...) @error(ptr noundef nonnull @.str.83, ptr noundef nonnull @__func__._shutdown_x11_forward) #17
  br label %9

9:                                                ; preds = %7, %5
  %10 = call i32 @reclaim_privileges(ptr noundef nonnull %2) #17
  %11 = icmp slt i32 %10, 0
  br i1 %11, label %.sink.split, label %13

.sink.split:                                      ; preds = %9, %1
  %.str.84.sink = phi ptr [ @.str.82, %1 ], [ @.str.84, %9 ]
  %12 = call i32 (ptr, ...) @error(ptr noundef nonnull %.str.84.sink, ptr noundef nonnull @__func__._shutdown_x11_forward) #17
  br label %13

13:                                               ; preds = %.sink.split, %9
  call void @llvm.lifetime.end.p0(i64 24, ptr nonnull %2) #17
  ret void
}